(lp0
(dp1
S'showTrayIcon'
p2
I01
sS'windowDefaultSize'
p3
(I1133
I504
tp4
sS'undoUsingBackspace'
p5
I01
sS'enableQT4Workaround'
p6
I00
sS'promptToSave'
p7
I01
sS'interfaceType'
p8
S'XEvDev'
p9
sS'showToolbar'
p10
I01
sS'serviceRunning'
p11
I01
sS'isFirstRun'
p12
I00
sS'sortByUsageCount'
p13
I01
sS'inputSavings'
p14
I1165
sS'hPanePosition'
p15
I286
sS'menuTakesFocus'
p16
I01
sa(iautokey.configmanager
ConfigManager
p17
(dp18
S'folders'
p19
(dp20
VSample Scripts
p21
(iautokey.model
Folder
p22
(dp23
g19
(lp24
sS'ignoreCase'
p25
I00
sS'modifiers'
p26
(lp27
sS'parent'
p28
NsS'modes'
p29
(lp30
sS'wordChars'
p31
cre
_compile
p32
(S'[\\w]'
p33
I32
tp34
Rp35
sS'windowTitleRegex'
p36
NsS'items'
p37
(lp38
(iautokey.model
Script
p39
(dp40
S'usageCount'
p41
I0
sg25
I00
sS'omitTrigger'
p42
I00
sg26
(lp43
sS'prompt'
p44
I00
sS'description'
p45
S'Insert Date'
p46
sg31
g35
sg36
NsS'showInTrayMenu'
p47
I00
sS'immediate'
p48
I00
sS'abbreviation'
p49
NsS'code'
p50
S'output = system.exec_command("date")\nkeyboard.send_keys(output)'
p51
sS'backspace'
p52
I01
sS'triggerInside'
p53
I00
sS'hotKey'
p54
Nsg28
g22
sS'store'
p55
ccopy_reg
_reconstructor
p56
(cautokey.scripting
Store
p57
c__builtin__
dict
p58
(dp59
tp60
Rp61
sg29
(lp62
sba(iautokey.model
Script
p63
(dp64
g41
I0
sg25
I00
sg42
I00
sg26
(lp65
sg44
I00
sg45
S'List Menu'
p66
sg31
g35
sg36
Nsg47
I00
sg48
I00
sg49
Nsg50
S'choices = ["something", "something else", "a third thing"]\n\nretCode, choice = dialog.list_menu(choices)\nif retCode == 0:\n    keyboard.send_keys("You chose " + choice)'
p67
sg52
I01
sg53
I00
sg54
Nsg28
g22
sg55
g56
(g57
g58
(dp68
tp69
Rp70
sg29
(lp71
sba(iautokey.model
Script
p72
(dp73
g41
I0
sg25
I00
sg42
I00
sg26
(lp74
sg44
I00
sg45
S'Selection Test'
p75
sg31
g35
sg36
Nsg47
I00
sg48
I00
sg49
Nsg50
S'text = clipboard.get_selection()\nkeyboard.send_key("<delete>")\nkeyboard.send_keys("The text %s was here previously" % text)'
p76
sg52
I01
sg53
I00
sg54
Nsg28
g22
sg55
g56
(g57
g58
(dp77
tp78
Rp79
sg29
(lp80
sba(iautokey.model
Script
p81
(dp82
g41
I0
sg25
I00
sg42
I00
sg26
(lp83
sg44
I00
sg45
S'Abbreviation from selection'
p84
sg31
g35
sg36
Nsg47
I00
sg48
I00
sg49
Nsg50
S'import time\ntime.sleep(0.25)\ncontents = clipboard.get_selection()\nretCode, abbr = dialog.input_dialog("New Abbreviation", "Choose an abbreviation for the new phrase")\nif retCode == 0:\n    if len(contents) > 20:\n        title = contents[0:17] + "..."\n    else:\n        title = contents\n    folder = engine.get_folder("My Phrases")\n    engine.create_abbreviation(folder, title, abbr, contents)'
p85
sg52
I01
sg53
I00
sg54
Nsg28
g22
sg55
g56
(g57
g58
(dp86
tp87
Rp88
sg29
(lp89
sba(iautokey.model
Script
p90
(dp91
g41
I0
sg25
I00
sg42
I00
sg26
(lp92
sg44
I00
sg45
S'Phrase from selection'
p93
sg31
g35
sg36
Nsg47
I00
sg48
I00
sg49
Nsg50
S'import time\ntime.sleep(0.25)\ncontents = clipboard.get_selection()\nif len(contents) > 20:\n    title = contents[0:17] + "..."\nelse:\n    title = contents\nfolder = engine.get_folder("My Phrases")\nengine.create_phrase(folder, title, contents)'
p94
sg52
I01
sg53
I00
sg54
Nsg28
g22
sg55
g56
(g57
g58
(dp95
tp96
Rp97
sg29
(lp98
sbasS'title'
p99
g21
sg47
I00
sg48
I00
sg49
Nsg52
I01
sg53
I00
sg54
Nsg41
I0
sbsVMy Phrases
p100
(iautokey.model
Folder
p101
(dp102
g19
(lp103
(iautokey.model
Folder
p104
(dp105
g19
(lp106
sg25
I00
sg26
(lp107
sg28
g101
sg29
(lp108
sg31
g35
sg36
Nsg37
(lp109
(iautokey.model
Phrase
p110
(dp111
g41
I14
sg25
I01
sg42
I00
sg26
(lp112
sg44
I00
sg45
VThanks
p113
sg31
g35
sg36
g32
(V.* - Rapportive Mail
p114
I32
tp115
Rp116
sS'matchCase'
p117
I01
sg47
I00
sg48
I00
sg49
Vtatouch
p118
sg52
I01
sg53
I00
sg54
NsS'phrase'
p119
Vthanks for getting in touch
p120
sg28
g104
sg29
(lp121
I1
asba(iautokey.model
Phrase
p122
(dp123
g41
I6
sg25
I01
sg42
I00
sg26
(lp124
sg44
I00
sg45
VDelighted using
p125
sg31
g35
sg36
Nsg117
I00
sg47
I00
sg48
I00
sg49
Vusedelight
p126
sg52
I01
sg53
I00
sg54
Nsg119
VWe're delighted that you're using Rapportive!
p127
sg28
g104
sg29
(lp128
I1
asba(iautokey.model
Phrase
p129
(dp130
g41
I2
sg25
I00
sg42
I00
sg26
(lp131
sg44
I00
sg45
VSorry no info
p132
sg31
g35
sg36
Nsg117
I00
sg47
I00
sg48
I00
sg49
Vsorrynoinfo
p133
sg52
I01
sg53
I00
sg54
Nsg119
VSorry that we haven't been able to find information for many of your contacts.
p134
sg28
g104
sg29
(lp135
I1
asba(iautokey.model
Phrase
p136
(dp137
g41
I1
sg25
I01
sg42
I00
sg26
(lp138
sg44
I00
sg45
VSources not perfect
p139
sg31
g35
sg36
Nsg117
I01
sg47
I00
sg48
I00
sg49
Vnotperfect
p140
sg52
I01
sg53
I00
sg54
Nsg119
Vour sources aren't perfect and sometimes miss information
p141
sg28
g104
sg29
(lp142
I1
asba(iautokey.model
Phrase
p143
(dp144
g41
I1
sg25
I00
sg42
I00
sg26
(lp145
sg44
I00
sg45
VWorks for some
p146
sg31
g35
sg36
Nsg117
I00
sg47
I00
sg48
I00
sg49
Vworksforsome
p147
sg52
I01
sg53
I00
sg54
Nsg119
VSome people find it works really well for their contacts, but some like yourself find it doesn't work so well
p148
sg28
g104
sg29
(lp149
I1
asba(iautokey.model
Phrase
p150
(dp151
g41
I1
sg25
I00
sg42
I00
sg26
(lp152
sg44
I00
sg45
VHope that helps
p153
sg31
g35
sg36
Nsg117
I00
sg47
I00
sg48
I00
sg49
Vhth
p154
sg52
I01
sg53
I00
sg54
Nsg119
VHope that helps
p155
sg28
g104
sg29
(lp156
I1
asba(iautokey.model
Phrase
p157
(dp158
g41
I4
sg25
I00
sg42
I00
sg26
(lp159
sg44
I00
sg45
VAnything else?
p160
sg31
g35
sg36
Nsg117
I00
sg47
I00
sg48
I00
sg49
Vnethingelse
p161
sg52
I01
sg53
I00
sg54
Nsg119
Vplease let me know if there's anything else I can do for you
p162
sg28
g104
sg29
(lp163
I1
asbasg99
VSupport
p164
sg47
I00
sg48
I00
sg49
Nsg52
I01
sg53
I00
sg54
Nsg41
I26
sbasg25
I00
sg26
(lp165
S'<ctrl>'
p166
asg28
Nsg29
(lp167
I3
asg31
g35
sg36
Nsg37
(lp168
sg99
g100
sg47
I00
sg48
I00
sg49
Nsg52
I01
sg53
I00
sg54
S'<f7>'
p169
sg41
I30
sbssS'toggleServiceHotkey'
p170
(iautokey.configmanager
GlobalHotkey
p171
(dp172
g54
NsS'closure'
p173
Nsg26
(lp174
sS'enabled'
p175
I00
sg36
NsbsS'allFolders'
p176
(lp177
g22
ag101
ag104
asS'app'
p178
NsS'globalHotkeys'
p179
(lp180
(iautokey.configmanager
GlobalHotkey
p181
(dp182
g54
Va
p183
sg173
Nsg26
(lp184
S'<ctrl>'
p185
aS'<super>'
p186
asg175
I01
sg36
Nsbag171
a(iautokey.configmanager
GlobalHotkey
p187
(dp188
g54
g183
sg173
Nsg26
(lp189
g186
asg175
I01
sg36
NsbasS'hotKeyFolders'
p190
(lp191
g101
asS'recentEntries'
p192
(lp193
sS'allItems'
p194
(lp195
g39
ag63
ag72
ag81
ag90
ag110
ag122
ag129
ag136
ag143
ag150
ag157
asS'userCodeDir'
p196
S'/home/sam'
p197
sS'VERSION'
p198
S'0.61.7'
p199
sS'hotKeys'
p200
(lp201
sS'showPopupHotkey'
p202
g187
sS'configHotkey'
p203
g181
sS'abbreviations'
p204
(lp205
g110
ag122
ag129
ag136
ag143
ag150
ag157
asba.