(lp0
(dp1
S'showTrayIcon'
p2
I01
sS'windowDefaultSize'
p3
(I960
I1008
tp4
sS'undoUsingBackspace'
p5
I01
sS'enableQT4Workaround'
p6
I00
sS'promptToSave'
p7
I01
sS'interfaceType'
p8
S'XEvDev'
p9
sS'showToolbar'
p10
I01
sS'serviceRunning'
p11
I01
sS'isFirstRun'
p12
I00
sS'sortByUsageCount'
p13
I01
sS'inputSavings'
p14
I3711
sS'hPanePosition'
p15
I242
sS'menuTakesFocus'
p16
I01
sa(iautokey.configmanager
ConfigManager
p17
(dp18
S'folders'
p19
(dp20
VSample Scripts
p21
(iautokey.model
Folder
p22
(dp23
g19
(lp24
sS'usageCount'
p25
I0
sS'wordChars'
p26
cre
_compile
p27
(S'[\\w]'
p28
I32
tp29
Rp30
sS'immediate'
p31
I00
sS'abbreviation'
p32
NsS'parent'
p33
NsS'modifiers'
p34
(lp35
sS'modes'
p36
(lp37
sS'windowTitleRegex'
p38
NsS'items'
p39
(lp40
(iautokey.model
Script
p41
(dp42
g25
I0
sS'omitTrigger'
p43
I00
sS'code'
p44
S'output = system.exec_command("date")\nkeyboard.send_keys(output)'
p45
sS'prompt'
p46
I00
sS'description'
p47
S'Insert Date'
p48
sg26
g30
sg31
I00
sg32
Nsg36
(lp49
sg34
(lp50
sg33
g22
sg38
NsS'showInTrayMenu'
p51
I00
sS'ignoreCase'
p52
I00
sS'backspace'
p53
I01
sS'triggerInside'
p54
I00
sS'hotKey'
p55
NsS'store'
p56
ccopy_reg
_reconstructor
p57
(cautokey.scripting
Store
p58
c__builtin__
dict
p59
(dp60
tp61
Rp62
sba(iautokey.model
Script
p63
(dp64
g25
I0
sg43
I00
sg44
S'choices = ["something", "something else", "a third thing"]\n\nretCode, choice = dialog.list_menu(choices)\nif retCode == 0:\n    keyboard.send_keys("You chose " + choice)'
p65
sg46
I00
sg47
S'List Menu'
p66
sg26
g30
sg31
I00
sg32
Nsg36
(lp67
sg34
(lp68
sg33
g22
sg38
Nsg51
I00
sg52
I00
sg53
I01
sg54
I00
sg55
Nsg56
g57
(g58
g59
(dp69
tp70
Rp71
sba(iautokey.model
Script
p72
(dp73
g25
I0
sg43
I00
sg44
S'text = clipboard.get_selection()\nkeyboard.send_key("<delete>")\nkeyboard.send_keys("The text %s was here previously" % text)'
p74
sg46
I00
sg47
S'Selection Test'
p75
sg26
g30
sg31
I00
sg32
Nsg36
(lp76
sg34
(lp77
sg33
g22
sg38
Nsg51
I00
sg52
I00
sg53
I01
sg54
I00
sg55
Nsg56
g57
(g58
g59
(dp78
tp79
Rp80
sba(iautokey.model
Script
p81
(dp82
g25
I0
sg43
I00
sg44
S'import time\ntime.sleep(0.25)\ncontents = clipboard.get_selection()\nretCode, abbr = dialog.input_dialog("New Abbreviation", "Choose an abbreviation for the new phrase")\nif retCode == 0:\n    if len(contents) > 20:\n        title = contents[0:17] + "..."\n    else:\n        title = contents\n    folder = engine.get_folder("My Phrases")\n    engine.create_abbreviation(folder, title, abbr, contents)'
p83
sg46
I00
sg47
S'Abbreviation from selection'
p84
sg26
g30
sg31
I00
sg32
Nsg36
(lp85
sg34
(lp86
sg33
g22
sg38
Nsg51
I00
sg52
I00
sg53
I01
sg54
I00
sg55
Nsg56
g57
(g58
g59
(dp87
tp88
Rp89
sba(iautokey.model
Script
p90
(dp91
g25
I0
sg43
I00
sg44
S'import time\ntime.sleep(0.25)\ncontents = clipboard.get_selection()\nif len(contents) > 20:\n    title = contents[0:17] + "..."\nelse:\n    title = contents\nfolder = engine.get_folder("My Phrases")\nengine.create_phrase(folder, title, contents)'
p92
sg46
I00
sg47
S'Phrase from selection'
p93
sg26
g30
sg31
I00
sg32
Nsg36
(lp94
sg34
(lp95
sg33
g22
sg38
Nsg51
I00
sg52
I00
sg53
I01
sg54
I00
sg55
Nsg56
g57
(g58
g59
(dp96
tp97
Rp98
sbasS'title'
p99
g21
sg51
I00
sg52
I00
sg53
I01
sg54
I00
sg55
NsbsVMy Phrases
p100
(iautokey.model
Folder
p101
(dp102
g19
(lp103
(iautokey.model
Folder
p104
(dp105
g19
(lp106
(iautokey.model
Folder
p107
(dp108
S'folders'
p109
(lp110
sS'usageCount'
p111
I6
sS'wordChars'
p112
g30
sS'immediate'
p113
I00
sS'abbreviation'
p114
NsS'modes'
p115
(lp116
sS'modifiers'
p117
(lp118
sS'parent'
p119
g104
sS'windowTitleRegex'
p120
NsS'items'
p121
(lp122
(iautokey.model
Phrase
p123
(dp124
g111
I2
sS'omitTrigger'
p125
I00
sS'prompt'
p126
I00
sS'description'
p127
VInvitation email
p128
sg112
g30
sg113
I01
sg114
Vrapletinvite
p129
sS'phrase'
p130
VI have attached the latest version of the documentation, and I will also send you invitations to two Google Groups:\u000a\u000a\u2013 raplet-announce \u2014 http://groups.google.com/group/raplet-announce \u2014 is the place where we announce updates to the Raplet platform. There will be only very occasional messages, maybe one or two a month. I strongly recommend that you subscribe  so that you can stay up-to-date with latest developments.\u000a\u000a\u2013 raplet-dev \u2014 http://groups.google.com/group/raplet-dev \u2014 is the place for Raplet developers to discuss all aspects of Raplets. Questions, feedback and stories of your own Raplets are most welcome. Please share your experiences for the benefit of other developers! Once you have signed up, you can post to the list by emailing raplet-dev@googlegroups.com.\u000a\u000aCan I ask what you are planning to make?\u000a\u000aIf you have any questions at all, please get in touch \u2014 we're more than happy to help.
p131
sg115
(lp132
I1
asg117
(lp133
sg119
g107
sg120
NsS'showInTrayMenu'
p134
I00
sS'matchCase'
p135
I00
sS'ignoreCase'
p136
I01
sS'backspace'
p137
I01
sS'triggerInside'
p138
I00
sS'hotKey'
p139
Nsba(iautokey.model
Phrase
p140
(dp141
g111
I2
sg125
I00
sg126
I00
sg127
Vraplet-announce invitation
p142
sg112
g30
sg113
I01
sg114
Vrapanninv
p143
sg130
VHi [name], following up from my email just now \u2013 here's the invitation for the Raplet announcement list. Please subscribe to get occasional updates on the documentation when they happen.
p144
sg115
(lp145
I1
asg117
(lp146
sg119
g107
sg120
Nsg134
I00
sg135
I00
sg136
I01
sg137
I01
sg138
I00
sg139
Nsba(iautokey.model
Phrase
p147
(dp148
g111
I2
sg125
I00
sg126
I00
sg127
Vraplet-dev invitation
p149
sg112
g30
sg113
I01
sg114
Vrapdevinv
p150
sg130
VHi [name], another invitation \u2013 this one is for the discussion list, where you can post any support questions and share your experiences of making your Raplet. We look forward to hearing from you!
p151
sg115
(lp152
I1
asg117
(lp153
sg119
g107
sg120
Nsg134
I00
sg135
I00
sg136
I01
sg137
I01
sg138
I00
sg139
NsbasS'title'
p154
VRaplets
p155
sg134
I00
sg136
I00
sg137
I01
sg138
I00
sg139
Nsbasg25
I32
sg26
g30
sg31
I00
sg32
Nsg33
g101
sg34
(lp156
sg36
(lp157
sg38
Nsg39
(lp158
(iautokey.model
Phrase
p159
(dp160
g25
I14
sg43
I00
sg46
I00
sg47
VThanks
p161
sg26
g30
sg31
I00
sg32
Vtatouch
p162
sS'phrase'
p163
Vthanks for getting in touch
p164
sg36
(lp165
I1
asg34
(lp166
sg33
g104
sg38
g27
(V.* - Rapportive Mail
p167
I32
tp168
Rp169
sg51
I00
sS'matchCase'
p170
I01
sg52
I01
sg53
I01
sg54
I00
sg55
Nsba(iautokey.model
Phrase
p171
(dp172
g25
I6
sg43
I00
sg46
I00
sg47
VDelighted using
p173
sg26
g30
sg31
I00
sg32
Vusedelight
p174
sg163
VWe're delighted that you're using Rapportive!
p175
sg36
(lp176
I1
asg34
(lp177
sg33
g104
sg38
Nsg51
I00
sg170
I00
sg52
I01
sg53
I01
sg54
I00
sg55
Nsba(iautokey.model
Phrase
p178
(dp179
g25
I2
sg43
I00
sg46
I00
sg47
VSorry no info
p180
sg26
g30
sg31
I00
sg32
Vsorrynoinfo
p181
sg163
VSorry that we haven't been able to find information for many of your contacts.
p182
sg36
(lp183
I1
asg34
(lp184
sg33
g104
sg38
Nsg51
I00
sg170
I00
sg52
I00
sg53
I01
sg54
I00
sg55
Nsba(iautokey.model
Phrase
p185
(dp186
g25
I1
sg43
I00
sg46
I00
sg47
VSources not perfect
p187
sg26
g30
sg31
I00
sg32
Vnotperfect
p188
sg163
Vour sources aren't perfect and sometimes miss information
p189
sg36
(lp190
I1
asg34
(lp191
sg33
g104
sg38
Nsg51
I00
sg170
I01
sg52
I01
sg53
I01
sg54
I00
sg55
Nsba(iautokey.model
Phrase
p192
(dp193
g25
I1
sg43
I00
sg46
I00
sg47
VWorks for some
p194
sg26
g30
sg31
I00
sg32
Vworksforsome
p195
sg163
VSome people find it works really well for their contacts, but some like yourself find it doesn't work so well
p196
sg36
(lp197
I1
asg34
(lp198
sg33
g104
sg38
Nsg51
I00
sg170
I00
sg52
I00
sg53
I01
sg54
I00
sg55
Nsba(iautokey.model
Phrase
p199
(dp200
g25
I1
sg43
I00
sg46
I00
sg47
VHope that helps
p201
sg26
g30
sg31
I00
sg32
Vhth
p202
sg163
VHope that helps
p203
sg36
(lp204
I1
asg34
(lp205
sg33
g104
sg38
Nsg51
I00
sg170
I00
sg52
I00
sg53
I01
sg54
I00
sg55
Nsba(iautokey.model
Phrase
p206
(dp207
g25
I4
sg43
I00
sg46
I00
sg47
VAnything else?
p208
sg26
g30
sg31
I00
sg32
Vnethingelse
p209
sg163
Vplease let me know if there's anything else I can do for you
p210
sg36
(lp211
I1
asg34
(lp212
sg33
g104
sg38
Nsg51
I00
sg170
I00
sg52
I00
sg53
I01
sg54
I00
sg55
Nsbasg99
VSupport
p213
sg51
I00
sg52
I00
sg53
I01
sg54
I00
sg55
Nsbasg25
I36
sg26
g30
sg31
I00
sg32
Nsg33
Nsg34
(lp214
S'<ctrl>'
p215
asg36
(lp216
I3
asg38
Nsg39
(lp217
sg99
g100
sg51
I00
sg52
I00
sg53
I01
sg54
I00
sg55
S'<f7>'
p218
sbssS'toggleServiceHotkey'
p219
(iautokey.configmanager
GlobalHotkey
p220
(dp221
g55
NsS'closure'
p222
Nsg34
(lp223
sS'enabled'
p224
I00
sg38
NsbsS'configHotkey'
p225
(iautokey.configmanager
GlobalHotkey
p226
(dp227
g55
Va
p228
sg222
Nsg34
(lp229
S'<ctrl>'
p230
aS'<super>'
p231
asg224
I01
sg38
NsbsS'app'
p232
NsS'globalHotkeys'
p233
(lp234
g226
ag220
a(iautokey.configmanager
GlobalHotkey
p235
(dp236
g55
g228
sg222
Nsg34
(lp237
g231
asg224
I01
sg38
NsbasS'hotKeyFolders'
p238
(lp239
g101
asS'hotKeys'
p240
(lp241
sS'allItems'
p242
(lp243
g41
ag63
ag72
ag81
ag90
ag123
ag140
ag147
ag159
ag171
ag178
ag185
ag192
ag199
ag206
asS'userCodeDir'
p244
S'/home/sam'
p245
sS'VERSION'
p246
S'0.61.7'
p247
sS'allFolders'
p248
(lp249
g22
ag101
ag104
ag107
asS'showPopupHotkey'
p250
g235
sS'recentEntries'
p251
(lp252
sS'abbreviations'
p253
(lp254
g123
ag140
ag147
ag159
ag171
ag178
ag185
ag192
ag199
ag206
asba.